target datalayout = "e-m:e-p270:32:32-p271:32:32-p272:64:64-i64:64-i128:128-f80:128-n8:16:32:64-S128"
target triple = "x86_64-pc-linux-gnu"

%"struct.cv::Ptr" = type { %"class.std::shared_ptr" }
%"class.std::shared_ptr" = type { %"class.std::__shared_ptr" }
%"class.std::__shared_ptr" = type { ptr, %"class.std::__shared_count" }
%"class.std::__shared_count" = type { ptr }
%"struct.cv::Ptr.0" = type { %"class.std::shared_ptr.1" }
%"class.std::shared_ptr.1" = type { %"class.std::__shared_ptr.2" }
%"class.std::__shared_ptr.2" = type { ptr, %"class.std::__shared_count" }
%"struct.cv::Ptr.4" = type { %"class.std::shared_ptr.5" }
%"class.std::shared_ptr.5" = type { %"class.std::__shared_ptr.6" }
%"class.std::__shared_ptr.6" = type { ptr, %"class.std::__shared_count" }
%"struct.cv::Ptr.8" = type { %"class.std::shared_ptr.9" }
%"class.std::shared_ptr.9" = type { %"class.std::__shared_ptr.10" }
%"class.std::__shared_ptr.10" = type { ptr, %"class.std::__shared_count" }
%"struct.cv::Ptr.12" = type { %"class.std::shared_ptr.13" }
%"class.std::shared_ptr.13" = type { %"class.std::__shared_ptr.14" }
%"class.std::__shared_ptr.14" = type { ptr, %"class.std::__shared_count" }
%"class.cv::videostab::StabilizerBase" = type { ptr, %"struct.cv::Ptr", %"struct.cv::Ptr.0", %"struct.cv::Ptr.0", %"struct.cv::Ptr.4", %"struct.cv::Ptr.8", %"struct.cv::Ptr.12", i32, float, i8, i32, %"class.cv::Size_", %"class.cv::Mat", i32, i32, i8, %"class.cv::Mat", i8, %"class.cv::Mat", %"class.cv::Mat", %"class.std::vector", %"class.std::vector", %"class.std::vector.16", %"class.std::vector", %"class.std::vector", %"class.std::vector", i64 }
%"class.cv::Size_" = type { i32, i32 }
%"class.cv::Mat" = type { i32, i32, i32, i32, ptr, ptr, ptr, ptr, ptr, ptr, %"struct.cv::MatSize", %"struct.cv::MatStep" }
%"struct.cv::MatSize" = type { ptr }
%"struct.cv::MatStep" = type { ptr, [2 x i64] }
%"class.std::vector.16" = type { %"struct.std::_Vector_base.17" }
%"struct.std::_Vector_base.17" = type { %"struct.std::_Vector_base<float, std::allocator<float>>::_Vector_impl" }
%"struct.std::_Vector_base<float, std::allocator<float>>::_Vector_impl" = type { %"struct.std::_Vector_base<float, std::allocator<float>>::_Vector_impl_data" }
%"struct.std::_Vector_base<float, std::allocator<float>>::_Vector_impl_data" = type { ptr, ptr, ptr }
%"class.std::vector" = type { %"struct.std::_Vector_base" }
%"struct.std::_Vector_base" = type { %"struct.std::_Vector_base<cv::Mat, std::allocator<cv::Mat>>::_Vector_impl" }
%"struct.std::_Vector_base<cv::Mat, std::allocator<cv::Mat>>::_Vector_impl" = type { %"struct.std::_Vector_base<cv::Mat, std::allocator<cv::Mat>>::_Vector_impl_data" }
%"struct.std::_Vector_base<cv::Mat, std::allocator<cv::Mat>>::_Vector_impl_data" = type { ptr, ptr, ptr }
%"class.cv::Rect_" = type { i32, i32, i32, i32 }
%"class.cv::videostab::IFrameSource" = type { ptr }
%"struct.cv::Ptr.53" = type { %"class.std::shared_ptr.54" }
%"class.std::shared_ptr.54" = type { %"class.std::__shared_ptr.55" }
%"class.std::__shared_ptr.55" = type { ptr, %"class.std::__shared_count" }
%"struct.cv::Ptr.57" = type { %"class.std::shared_ptr.58" }
%"class.std::shared_ptr.58" = type { %"class.std::__shared_ptr.59" }
%"class.std::__shared_ptr.59" = type { ptr, %"class.std::__shared_count" }
%"class.cv::videostab::TwoPassStabilizer" = type { %"class.cv::videostab::StabilizerBase", %"class.cv::videostab::IFrameSource", %"struct.cv::Ptr.53", %"struct.cv::Ptr.57", i8, i32, i8, i8, %"class.std::vector", %"class.cv::Mat" }

; Function Attrs: inlinehint mustprogress uwtable
define linkonce_odr hidden void @_ZNK2cv3MatclERKNS_5Rect_IiEE(ptr dead_on_unwind noalias writable sret(%"class.cv::Mat") align 8 %0, ptr noundef nonnull align 8 dereferenceable(96) %1, ptr noundef nonnull align 4 dereferenceable(16) %2) #8 comdat align 2 {
  %4 = alloca ptr, align 8
  %5 = alloca ptr, align 8
  %6 = alloca ptr, align 8
  store ptr %0, ptr %4, align 8
  store ptr %1, ptr %5, align 8, !tbaa !118
  store ptr %2, ptr %6, align 8, !tbaa !142
  %7 = load ptr, ptr %5, align 8
  %8 = load ptr, ptr %6, align 8, !tbaa !142
  call void @_ZN2cv3MatC1ERKS0_RKNS_5Rect_IiEE(ptr noundef nonnull align 8 dereferenceable(96) %0, ptr noundef nonnull align 8 dereferenceable(96) %7, ptr noundef nonnull align 4 dereferenceable(16) %8)
  ret void
}

; Function Attrs: inlinehint mustprogress nounwind uwtable
define linkonce_odr hidden void @_ZN2cv5Rect_IiEC2Eiiii(ptr noundef nonnull align 4 dereferenceable(16) %0, i32 noundef %1, i32 noundef %2, i32 noundef %3, i32 noundef %4) unnamed_addr #5 comdat align 2 {
  %6 = alloca ptr, align 8
  %7 = alloca i32, align 4
  %8 = alloca i32, align 4
  %9 = alloca i32, align 4
  %10 = alloca i32, align 4
  store ptr %0, ptr %6, align 8, !tbaa !142
  store i32 %1, ptr %7, align 4, !tbaa !101
  store i32 %2, ptr %8, align 4, !tbaa !101
  store i32 %3, ptr %9, align 4, !tbaa !101
  store i32 %4, ptr %10, align 4, !tbaa !101
  %11 = load ptr, ptr %6, align 8
  %12 = getelementptr inbounds nuw %"class.cv::Rect_", ptr %11, i32 0, i32 0
  %13 = load i32, ptr %7, align 4, !tbaa !101
  store i32 %13, ptr %12, align 4, !tbaa !144
  %14 = getelementptr inbounds nuw %"class.cv::Rect_", ptr %11, i32 0, i32 1
  %15 = load i32, ptr %8, align 4, !tbaa !101
  store i32 %15, ptr %14, align 4, !tbaa !146
  %16 = getelementptr inbounds nuw %"class.cv::Rect_", ptr %11, i32 0, i32 2
  %17 = load i32, ptr %9, align 4, !tbaa !101
  store i32 %17, ptr %16, align 4, !tbaa !147
  %18 = getelementptr inbounds nuw %"class.cv::Rect_", ptr %11, i32 0, i32 3
  %19 = load i32, ptr %10, align 4, !tbaa !101
  store i32 %19, ptr %18, align 4, !tbaa !148
  ret void
}

; Function Attrs: mustprogress nounwind uwtable
define linkonce_odr hidden noundef ptr @_ZNKSt12__shared_ptrIN2cv9videostab20WobbleSuppressorBaseELN9__gnu_cxx12_Lock_policyE2EE3getEv(ptr noundef nonnull align 8 dereferenceable(16) %0) #6 comdat align 2 {
  %2 = alloca ptr, align 8
  store ptr %0, ptr %2, align 8, !tbaa !184
  %3 = load ptr, ptr %2, align 8
  %4 = getelementptr inbounds nuw %"class.std::__shared_ptr.59", ptr %3, i32 0, i32 0
  %5 = load ptr, ptr %4, align 8, !tbaa !204
  ret ptr %5
}

; Function Attrs: mustprogress uwtable
define void @_ZN2cv9videostab14StabilizerBase16postProcessFrameERKNS_3MatE(ptr dead_on_unwind noalias writable sret(%"class.cv::Mat") align 8 %0, ptr noundef nonnull align 8 dereferenceable(688) %1, ptr noundef nonnull align 8 dereferenceable(96) %2) unnamed_addr #4 align 2 {
  %4 = alloca ptr, align 8
  %5 = alloca ptr, align 8
  %6 = alloca ptr, align 8
  %7 = alloca i32, align 4
  %8 = alloca i32, align 4
  %9 = alloca %"class.cv::Rect_", align 4
  store ptr %0, ptr %4, align 8
  store ptr %1, ptr %5, align 8, !tbaa !3
  store ptr %2, ptr %6, align 8, !tbaa !118
  %10 = load ptr, ptr %5, align 8
  call void @llvm.lifetime.start.p0(i64 4, ptr %7) #3
  %11 = getelementptr inbounds nuw %"class.cv::videostab::StabilizerBase", ptr %10, i32 0, i32 8
  %12 = load float, ptr %11, align 4, !tbaa !104
  %13 = load ptr, ptr %6, align 8, !tbaa !118
  %14 = getelementptr inbounds nuw %"class.cv::Mat", ptr %13, i32 0, i32 3
  %15 = load i32, ptr %14, align 4, !tbaa !157
  %16 = sitofp i32 %15 to float
  %17 = fmul float %12, %16
  %18 = fpext float %17 to double
  %19 = call double @llvm.floor.f64(double %18)
  %20 = fptosi double %19 to i32
  store i32 %20, ptr %7, align 4, !tbaa !101
  call void @llvm.lifetime.start.p0(i64 4, ptr %8) #3
  %21 = getelementptr inbounds nuw %"class.cv::videostab::StabilizerBase", ptr %10, i32 0, i32 8
  %22 = load float, ptr %21, align 4, !tbaa !104
  %23 = load ptr, ptr %6, align 8, !tbaa !118
  %24 = getelementptr inbounds nuw %"class.cv::Mat", ptr %23, i32 0, i32 2
  %25 = load i32, ptr %24, align 8, !tbaa !158
  %26 = sitofp i32 %25 to float
  %27 = fmul float %22, %26
  %28 = fpext float %27 to double
  %29 = call double @llvm.floor.f64(double %28)
  %30 = fptosi double %29 to i32
  store i32 %30, ptr %8, align 4, !tbaa !101
  %31 = load ptr, ptr %6, align 8, !tbaa !118
  call void @llvm.lifetime.start.p0(i64 16, ptr %9) #3
  %32 = load i32, ptr %7, align 4, !tbaa !101
  %33 = load i32, ptr %8, align 4, !tbaa !101
  %34 = load ptr, ptr %6, align 8, !tbaa !118
  %35 = getelementptr inbounds nuw %"class.cv::Mat", ptr %34, i32 0, i32 3
  %36 = load i32, ptr %35, align 4, !tbaa !157
  %37 = load i32, ptr %7, align 4, !tbaa !101
  %38 = mul nsw i32 2, %37
  %39 = sub nsw i32 %36, %38
  %40 = load ptr, ptr %6, align 8, !tbaa !118
  %41 = getelementptr inbounds nuw %"class.cv::Mat", ptr %40, i32 0, i32 2
  %42 = load i32, ptr %41, align 8, !tbaa !158
  %43 = load i32, ptr %8, align 4, !tbaa !101
  %44 = mul nsw i32 2, %43
  %45 = sub nsw i32 %42, %44
  call void @_ZN2cv5Rect_IiEC2Eiiii(ptr noundef nonnull align 4 dereferenceable(16) %9, i32 noundef %32, i32 noundef %33, i32 noundef %39, i32 noundef %45)
  call void @_ZNK2cv3MatclERKNS_5Rect_IiEE(ptr dead_on_unwind writable sret(%"class.cv::Mat") align 8 %0, ptr noundef nonnull align 8 dereferenceable(96) %31, ptr noundef nonnull align 4 dereferenceable(16) %9)
  call void @llvm.lifetime.end.p0(i64 16, ptr %9) #3
  call void @llvm.lifetime.end.p0(i64 4, ptr %8) #3
  call void @llvm.lifetime.end.p0(i64 4, ptr %7) #3
  ret void
}

; Function Attrs: mustprogress nounwind uwtable
define linkonce_odr hidden noundef ptr @_ZNK2cv3PtrINS_9videostab20WobbleSuppressorBaseEEptEv(ptr noundef nonnull align 8 dereferenceable(16) %0) #6 comdat align 2 {
  %2 = alloca ptr, align 8
  store ptr %0, ptr %2, align 8, !tbaa !178
  %3 = load ptr, ptr %2, align 8
  %4 = call noundef ptr @_ZNKSt12__shared_ptrIN2cv9videostab20WobbleSuppressorBaseELN9__gnu_cxx12_Lock_policyE2EE3getEv(ptr noundef nonnull align 8 dereferenceable(16) %3) #3
  ret ptr %4
}

; Function Attrs: mustprogress uwtable
define void @_ZN2cv9videostab17TwoPassStabilizer16postProcessFrameERKNS_3MatE(ptr dead_on_unwind noalias writable sret(%"class.cv::Mat") align 8 %0, ptr noundef nonnull align 8 dereferenceable(864) %1, ptr noundef nonnull align 8 dereferenceable(96) %2) unnamed_addr #4 align 2 {
  %4 = alloca ptr, align 8
  %5 = alloca ptr, align 8
  %6 = alloca ptr, align 8
  store ptr %0, ptr %4, align 8
  store ptr %1, ptr %5, align 8, !tbaa !174
  store ptr %2, ptr %6, align 8, !tbaa !118
  %7 = load ptr, ptr %5, align 8
  %8 = getelementptr inbounds nuw %"class.cv::videostab::TwoPassStabilizer", ptr %7, i32 0, i32 3
  %9 = call noundef ptr @_ZNK2cv3PtrINS_9videostab20WobbleSuppressorBaseEEptEv(ptr noundef nonnull align 8 dereferenceable(16) %8) #3
  %10 = getelementptr inbounds nuw %"class.cv::videostab::StabilizerBase", ptr %7, i32 0, i32 14
  %11 = load i32, ptr %10, align 4, !tbaa !57
  %12 = load ptr, ptr %6, align 8, !tbaa !118
  %13 = getelementptr inbounds nuw %"class.cv::videostab::TwoPassStabilizer", ptr %7, i32 0, i32 9
  %14 = load ptr, ptr %9, align 8, !tbaa !8
  %15 = getelementptr inbounds ptr, ptr %14, i64 2
  %16 = load ptr, ptr %15, align 8
  call void %16(ptr noundef nonnull align 8 dereferenceable(56) %9, i32 noundef %11, ptr noundef nonnull align 8 dereferenceable(96) %12, ptr noundef nonnull align 8 dereferenceable(96) %13)
  %17 = getelementptr inbounds nuw %"class.cv::videostab::TwoPassStabilizer", ptr %7, i32 0, i32 9
  call void @_ZN2cv9videostab14StabilizerBase16postProcessFrameERKNS_3MatE(ptr dead_on_unwind writable sret(%"class.cv::Mat") align 8 %0, ptr noundef nonnull align 8 dereferenceable(688) %7, ptr noundef nonnull align 8 dereferenceable(96) %17)
  ret void
}