; Function Attrs: mustprogress uwtable
define void @_ZN2cv9videostab17TwoPassStabilizer16postProcessFrameERKNS_3MatE(ptr dead_on_unwind noalias writable sret(%"class.cv::Mat") align 8 %0, ptr noundef nonnull align 8 dereferenceable(864) %1, ptr noundef nonnull align 8 dereferenceable(96) %2) unnamed_addr #3 align 2 {
  %4 = alloca %"class.cv::Rect_", align 4
  %5 = getelementptr inbounds nuw i8, ptr %1, i64 712
  %6 = load ptr, ptr %5, align 8, !tbaa !174
  %7 = getelementptr inbounds nuw i8, ptr %1, i64 228
  %8 = load i32, ptr %7, align 4, !tbaa !107
  %9 = getelementptr inbounds nuw i8, ptr %1, i64 768
  %10 = load ptr, ptr %6, align 8, !tbaa !3
  %11 = getelementptr inbounds nuw i8, ptr %10, i64 16
  %12 = load ptr, ptr %11, align 8
  tail call void %12(ptr noundef nonnull align 8 dereferenceable(56) %6, i32 noundef %8, ptr noundef nonnull align 8 dereferenceable(96) %2, ptr noundef nonnull align 8 dereferenceable(96) %9)
  %13 = getelementptr inbounds nuw i8, ptr %1, i64 108
  %14 = load float, ptr %13, align 4, !tbaa !103, !noalias !203
  %15 = getelementptr inbounds nuw i8, ptr %1, i64 780
  %16 = load i32, ptr %15, align 4, !tbaa !146, !noalias !203
  %17 = sitofp i32 %16 to float
  %18 = fmul float %14, %17
  %19 = tail call float @llvm.floor.f32(float %18)
  %20 = fptosi float %19 to i32
  %21 = getelementptr inbounds nuw i8, ptr %1, i64 776
  %22 = load i32, ptr %21, align 8, !tbaa !147, !noalias !203
  %23 = sitofp i32 %22 to float
  %24 = fmul float %14, %23
  %25 = tail call float @llvm.floor.f32(float %24)
  %26 = fptosi float %25 to i32
  call void @llvm.lifetime.start.p0(i64 16, ptr nonnull %4) #23, !noalias !203
  %27 = shl nsw i32 %20, 1
  %28 = sub nsw i32 %16, %27
  %29 = shl nsw i32 %26, 1
  %30 = sub nsw i32 %22, %29
  store i32 %20, ptr %4, align 4, !tbaa !134, !noalias !203
  %31 = getelementptr inbounds nuw i8, ptr %4, i64 4
  store i32 %26, ptr %31, align 4, !tbaa !136, !noalias !203
  %32 = getelementptr inbounds nuw i8, ptr %4, i64 8
  store i32 %28, ptr %32, align 4, !tbaa !137, !noalias !203
  %33 = getelementptr inbounds nuw i8, ptr %4, i64 12
  store i32 %30, ptr %33, align 4, !tbaa !138, !noalias !203
  call void @_ZN2cv3MatC1ERKS0_RKNS_5Rect_IiEE(ptr noundef nonnull align 8 dereferenceable(96) %0, ptr noundef nonnull align 8 dereferenceable(96) %9, ptr noundef nonnull align 4 dereferenceable(16) %4)
  call void @llvm.lifetime.end.p0(i64 16, ptr nonnull %4) #23, !noalias !203
  ret void
}